; Function Attrs: mustprogress uwtable
define void @_ZN3gmx11PullElement16schedulePostStepEldRKSt8functionIFvS1_IFvvEEEE(ptr noundef nonnull align 8 dereferenceable(96) %0, i64 noundef %1, double noundef %2, ptr noundef nonnull align 8 dereferenceable(32) %3) local_unnamed_addr #0 align 2 personality ptr @__gxx_personality_v0 {
  %5 = alloca %"class.std::function.93", align 8
  %6 = getelementptr inbounds i8, ptr %0, i64 80
  %7 = load ptr, ptr %6, align 8
  %8 = getelementptr inbounds i8, ptr %7, i64 52
  %9 = load i32, ptr %8, align 4
  %10 = icmp eq i32 %9, 0
  br i1 %10, label %15, label %11

11:                                               ; preds = %4
  %12 = getelementptr inbounds i8, ptr %7, i64 48
  %13 = load i32, ptr %12, align 8
  %14 = icmp sgt i32 %13, 1
  br i1 %14, label %_ZNSt8functionIFvvEED2Ev.exit, label %15

15:                                               ; preds = %11, %4
  %16 = getelementptr inbounds i8, ptr %5, i64 16
  %17 = getelementptr inbounds i8, ptr %5, i64 24
  %18 = getelementptr inbounds i8, ptr %5, i64 8
  store i64 0, ptr %18, align 8
  %19 = tail call noalias noundef nonnull dereferenceable(24) ptr @_Znwm(i64 noundef 24) #24
  store ptr %0, ptr %19, align 16
  %.sroa.2.0..sroa_idx = getelementptr inbounds i8, ptr %19, i64 8
  store i64 %1, ptr %.sroa.2.0..sroa_idx, align 8
  %.sroa.3.0..sroa_idx = getelementptr inbounds i8, ptr %19, i64 16
  store double %2, ptr %.sroa.3.0..sroa_idx, align 16
  store ptr %19, ptr %5, align 8
  store ptr @"_ZNSt17_Function_handlerIFvvEZN3gmx11PullElement16schedulePostStepEldRKSt8functionIFvS3_IS0_EEEE3$_0E9_M_invokeERKSt9_Any_data", ptr %17, align 8
  store ptr @"_ZNSt17_Function_handlerIFvvEZN3gmx11PullElement16schedulePostStepEldRKSt8functionIFvS3_IS0_EEEE3$_0E10_M_managerERSt9_Any_dataRKSB_St18_Manager_operation", ptr %16, align 8
  %20 = getelementptr inbounds i8, ptr %3, i64 16
  %21 = load ptr, ptr %20, align 8
  %.not.i.i = icmp eq ptr %21, null
  br i1 %.not.i.i, label %22, label %23

22:                                               ; preds = %15
  invoke void @_ZSt25__throw_bad_function_callv() #20
          to label %.noexc unwind label %32

.noexc:                                           ; preds = %22
  unreachable

23:                                               ; preds = %15
  %24 = getelementptr inbounds i8, ptr %3, i64 24
  %25 = load ptr, ptr %24, align 8
  invoke void %25(ptr noundef nonnull align 8 dereferenceable(16) %3, ptr noundef nonnull align 8 dereferenceable(32) %5)
          to label %_ZNKSt8functionIFvS_IFvvEEEEclES1_.exit unwind label %32

_ZNKSt8functionIFvS_IFvvEEEEclES1_.exit:          ; preds = %23
  %26 = load ptr, ptr %16, align 8
  %.not.i.i6 = icmp eq ptr %26, null
  br i1 %.not.i.i6, label %_ZNSt8functionIFvvEED2Ev.exit, label %27

27:                                               ; preds = %_ZNKSt8functionIFvS_IFvvEEEEclES1_.exit
  %28 = invoke noundef zeroext i1 %26(ptr noundef nonnull align 8 dereferenceable(16) %5, ptr noundef nonnull align 8 dereferenceable(16) %5, i32 noundef 3)
          to label %_ZNSt8functionIFvvEED2Ev.exit unwind label %29

29:                                               ; preds = %27
  %30 = landingpad { ptr, i32 }
          catch ptr null
  %31 = extractvalue { ptr, i32 } %30, 0
  call void @__clang_call_terminate(ptr %31) #21
  unreachable

32:                                               ; preds = %23, %22
  %33 = landingpad { ptr, i32 }
          cleanup
  %34 = load ptr, ptr %16, align 8
  %.not.i.i7 = icmp eq ptr %34, null
  br i1 %.not.i.i7, label %_ZNSt8functionIFvvEED2Ev.exit8, label %35

35:                                               ; preds = %32
  %36 = invoke noundef zeroext i1 %34(ptr noundef nonnull align 8 dereferenceable(16) %5, ptr noundef nonnull align 8 dereferenceable(16) %5, i32 noundef 3)
          to label %_ZNSt8functionIFvvEED2Ev.exit8 unwind label %37

37:                                               ; preds = %35
  %38 = landingpad { ptr, i32 }
          catch ptr null
  %39 = extractvalue { ptr, i32 } %38, 0
  call void @__clang_call_terminate(ptr %39) #21
  unreachable

_ZNSt8functionIFvvEED2Ev.exit8:                   ; preds = %32, %35
  resume { ptr, i32 } %33

_ZNSt8functionIFvvEED2Ev.exit:                    ; preds = %27, %_ZNKSt8functionIFvS_IFvvEEEEclES1_.exit, %11
  ret void
}